target datalayout = "e-m:e-p270:32:32-p271:32:32-p272:64:64-i64:64-i128:128-f80:128-n8:16:32:64-S128"
target triple = "x86_64-pc-linux-gnu"

%struct.quic_hdr_protector_st = type { ptr, ptr, ptr, ptr, i32 }

@.str.3 = private unnamed_addr constant [36 x i8] c"../openssl/ssl/quic/quic_wire_pkt.c\00", align 1
@hdr_generate_mask.zeroes = internal constant [5 x i8] zeroinitializer, align 1
@__func__.hdr_generate_mask = private unnamed_addr constant [18 x i8] c"hdr_generate_mask\00", align 1

; Function Attrs: nounwind uwtable
define internal i32 @hdr_generate_mask(ptr noundef %0, ptr noundef %1, i64 noundef %2, ptr noundef %3) #0 {
  %5 = alloca i32, align 4
  %6 = alloca ptr, align 8
  %7 = alloca ptr, align 8
  %8 = alloca i64, align 8
  %9 = alloca ptr, align 8
  %10 = alloca i32, align 4
  %11 = alloca [16 x i8], align 16
  %12 = alloca i64, align 8
  %13 = alloca i32, align 4
  store ptr %0, ptr %6, align 8, !tbaa !3
  store ptr %1, ptr %7, align 8, !tbaa !10
  store i64 %2, ptr %8, align 8, !tbaa !14
  store ptr %3, ptr %9, align 8, !tbaa !10
  call void @llvm.lifetime.start.p0(i64 4, ptr %10) #7
  store i32 0, ptr %10, align 4, !tbaa !12
  call void @llvm.lifetime.start.p0(i64 16, ptr %11) #7
  call void @llvm.lifetime.start.p0(i64 8, ptr %12) #7
  %14 = load ptr, ptr %6, align 8, !tbaa !3
  %15 = getelementptr inbounds nuw %struct.quic_hdr_protector_st, ptr %14, i32 0, i32 4
  %16 = load i32, ptr %15, align 8, !tbaa !23
  %17 = icmp eq i32 %16, 1
  br i1 %17, label %23, label %18

18:                                               ; preds = %4
  %19 = load ptr, ptr %6, align 8, !tbaa !3
  %20 = getelementptr inbounds nuw %struct.quic_hdr_protector_st, ptr %19, i32 0, i32 4
  %21 = load i32, ptr %20, align 8, !tbaa !23
  %22 = icmp eq i32 %21, 2
  br i1 %22, label %23, label %57

23:                                               ; preds = %18, %4
  %24 = load i64, ptr %8, align 8, !tbaa !14
  %25 = icmp ult i64 %24, 16
  br i1 %25, label %26, label %27

26:                                               ; preds = %23
  call void @ERR_new()
  call void @ERR_set_debug(ptr noundef @.str.3, i32 noundef 88, ptr noundef @__func__.hdr_generate_mask)
  call void (i32, i32, ptr, ...) @ERR_set_error(i32 noundef 20, i32 noundef 524550, ptr noundef null)
  store i32 0, ptr %5, align 4
  store i32 1, ptr %13, align 4
  br label %85

27:                                               ; preds = %23
  %28 = load ptr, ptr %6, align 8, !tbaa !3
  %29 = getelementptr inbounds nuw %struct.quic_hdr_protector_st, ptr %28, i32 0, i32 2
  %30 = load ptr, ptr %29, align 8, !tbaa !16
  %31 = call i32 @EVP_CipherInit_ex(ptr noundef %30, ptr noundef null, ptr noundef null, ptr noundef null, ptr noundef null, i32 noundef 1)
  %32 = icmp ne i32 %31, 0
  br i1 %32, label %33, label %41

33:                                               ; preds = %27
  %34 = load ptr, ptr %6, align 8, !tbaa !3
  %35 = getelementptr inbounds nuw %struct.quic_hdr_protector_st, ptr %34, i32 0, i32 2
  %36 = load ptr, ptr %35, align 8, !tbaa !16
  %37 = getelementptr inbounds [16 x i8], ptr %11, i64 0, i64 0
  %38 = load ptr, ptr %7, align 8, !tbaa !10
  %39 = call i32 @EVP_CipherUpdate(ptr noundef %36, ptr noundef %37, ptr noundef %10, ptr noundef %38, i32 noundef 16)
  %40 = icmp ne i32 %39, 0
  br i1 %40, label %42, label %41

41:                                               ; preds = %33, %27
  call void @ERR_new()
  call void @ERR_set_debug(ptr noundef @.str.3, i32 noundef 94, ptr noundef @__func__.hdr_generate_mask)
  call void (i32, i32, ptr, ...) @ERR_set_error(i32 noundef 20, i32 noundef 524294, ptr noundef null)
  store i32 0, ptr %5, align 4
  store i32 1, ptr %13, align 4
  br label %85

42:                                               ; preds = %33
  store i64 0, ptr %12, align 8, !tbaa !14
  br label %43

43:                                               ; preds = %53, %42
  %44 = load i64, ptr %12, align 8, !tbaa !14
  %45 = icmp ult i64 %44, 5
  br i1 %45, label %46, label %56

46:                                               ; preds = %43
  %47 = load i64, ptr %12, align 8, !tbaa !14
  %48 = getelementptr inbounds nuw [16 x i8], ptr %11, i64 0, i64 %47
  %49 = load i8, ptr %48, align 1, !tbaa !31
  %50 = load ptr, ptr %9, align 8, !tbaa !10
  %51 = load i64, ptr %12, align 8, !tbaa !14
  %52 = getelementptr inbounds nuw i8, ptr %50, i64 %51
  store i8 %49, ptr %52, align 1, !tbaa !31
  br label %53

53:                                               ; preds = %46
  %54 = load i64, ptr %12, align 8, !tbaa !14
  %55 = add i64 %54, 1
  store i64 %55, ptr %12, align 8, !tbaa !14
  br label %43, !llvm.loop !34

56:                                               ; preds = %43
  br label %84

57:                                               ; preds = %18
  %58 = load ptr, ptr %6, align 8, !tbaa !3
  %59 = getelementptr inbounds nuw %struct.quic_hdr_protector_st, ptr %58, i32 0, i32 4
  %60 = load i32, ptr %59, align 8, !tbaa !23
  %61 = icmp eq i32 %60, 3
  br i1 %61, label %62, label %82

62:                                               ; preds = %57
  %63 = load i64, ptr %8, align 8, !tbaa !14
  %64 = icmp ult i64 %63, 16
  br i1 %64, label %65, label %66

65:                                               ; preds = %62
  call void @ERR_new()
  call void @ERR_set_debug(ptr noundef @.str.3, i32 noundef 102, ptr noundef @__func__.hdr_generate_mask)
  call void (i32, i32, ptr, ...) @ERR_set_error(i32 noundef 20, i32 noundef 524550, ptr noundef null)
  store i32 0, ptr %5, align 4
  store i32 1, ptr %13, align 4
  br label %85

66:                                               ; preds = %62
  %67 = load ptr, ptr %6, align 8, !tbaa !3
  %68 = getelementptr inbounds nuw %struct.quic_hdr_protector_st, ptr %67, i32 0, i32 2
  %69 = load ptr, ptr %68, align 8, !tbaa !16
  %70 = load ptr, ptr %7, align 8, !tbaa !10
  %71 = call i32 @EVP_CipherInit_ex(ptr noundef %69, ptr noundef null, ptr noundef null, ptr noundef null, ptr noundef %70, i32 noundef 1)
  %72 = icmp ne i32 %71, 0
  br i1 %72, label %73, label %80

73:                                               ; preds = %66
  %74 = load ptr, ptr %6, align 8, !tbaa !3
  %75 = getelementptr inbounds nuw %struct.quic_hdr_protector_st, ptr %74, i32 0, i32 2
  %76 = load ptr, ptr %75, align 8, !tbaa !16
  %77 = load ptr, ptr %9, align 8, !tbaa !10
  %78 = call i32 @EVP_CipherUpdate(ptr noundef %76, ptr noundef %77, ptr noundef %10, ptr noundef @hdr_generate_mask.zeroes, i32 noundef 5)
  %79 = icmp ne i32 %78, 0
  br i1 %79, label %81, label %80

80:                                               ; preds = %73, %66
  call void @ERR_new()
  call void @ERR_set_debug(ptr noundef @.str.3, i32 noundef 109, ptr noundef @__func__.hdr_generate_mask)
  call void (i32, i32, ptr, ...) @ERR_set_error(i32 noundef 20, i32 noundef 524294, ptr noundef null)
  store i32 0, ptr %5, align 4
  store i32 1, ptr %13, align 4
  br label %85

81:                                               ; preds = %73
  br label %83

82:                                               ; preds = %57
  call void @ERR_new()
  call void @ERR_set_debug(ptr noundef @.str.3, i32 noundef 113, ptr noundef @__func__.hdr_generate_mask)
  call void (i32, i32, ptr, ...) @ERR_set_error(i32 noundef 20, i32 noundef 786691, ptr noundef null)
  store i32 0, ptr %5, align 4
  store i32 1, ptr %13, align 4
  br label %85

83:                                               ; preds = %81
  br label %84

84:                                               ; preds = %83, %56
  store i32 1, ptr %5, align 4
  store i32 1, ptr %13, align 4
  br label %85

85:                                               ; preds = %84, %82, %80, %65, %41, %26
  call void @llvm.lifetime.end.p0(i64 8, ptr %12) #7
  call void @llvm.lifetime.end.p0(i64 16, ptr %11) #7
  call void @llvm.lifetime.end.p0(i64 4, ptr %10) #7
  %86 = load i32, ptr %5, align 4
  ret i32 %86
}