; Function Attrs: nounwind uwtable
define internal fastcc range(i32 0, 2) i32 @hdr_generate_mask(ptr noundef readonly captures(none) %0, ptr noundef %1, i64 noundef %2, ptr noundef nonnull %3) unnamed_addr #0 {
  %5 = alloca i32, align 4
  %6 = alloca [16 x i8], align 16
  call void @llvm.lifetime.start.p0(i64 4, ptr nonnull %5) #10
  store i32 0, ptr %5, align 4, !tbaa !26
  call void @llvm.lifetime.start.p0(i64 16, ptr nonnull %6) #10
  %7 = getelementptr inbounds nuw i8, ptr %0, i64 32
  %8 = load i32, ptr %7, align 8, !tbaa !16
  switch i32 %8, label %31 [
    i32 1, label %9
    i32 2, label %9
    i32 3, label %20
  ]

9:                                                ; preds = %4, %4
  %10 = icmp ult i64 %2, 16
  br i1 %10, label %11, label %12

11:                                               ; preds = %9
  tail call void @ERR_new() #10
  tail call void @ERR_set_debug(ptr noundef nonnull @.str.3, i32 noundef 88, ptr noundef nonnull @__func__.hdr_generate_mask) #10
  tail call void (i32, i32, ptr, ...) @ERR_set_error(i32 noundef 20, i32 noundef 524550, ptr noundef null) #10
  br label %.loopexit

12:                                               ; preds = %9
  %13 = getelementptr inbounds nuw i8, ptr %0, i64 16
  %14 = load ptr, ptr %13, align 8, !tbaa !3
  %15 = tail call i32 @EVP_CipherInit_ex(ptr noundef %14, ptr noundef null, ptr noundef null, ptr noundef null, ptr noundef null, i32 noundef 1) #10
  %.not20 = icmp eq i32 %15, 0
  br i1 %.not20, label %19, label %16

16:                                               ; preds = %12
  %17 = load ptr, ptr %13, align 8, !tbaa !3
  %18 = call i32 @EVP_CipherUpdate(ptr noundef %17, ptr noundef nonnull %6, ptr noundef nonnull %5, ptr noundef %1, i32 noundef 16) #10
  %.not21 = icmp eq i32 %18, 0
  br i1 %.not21, label %19, label %.preheader.preheader

.preheader.preheader:                             ; preds = %16
  call void @llvm.memcpy.p0.p0.i64(ptr noundef nonnull align 1 dereferenceable(5) %3, ptr noundef nonnull align 16 dereferenceable(5) %6, i64 5, i1 false), !tbaa !23
  br label %.loopexit

19:                                               ; preds = %16, %12
  call void @ERR_new() #10
  call void @ERR_set_debug(ptr noundef nonnull @.str.3, i32 noundef 94, ptr noundef nonnull @__func__.hdr_generate_mask) #10
  call void (i32, i32, ptr, ...) @ERR_set_error(i32 noundef 20, i32 noundef 524294, ptr noundef null) #10
  br label %.loopexit

20:                                               ; preds = %4
  %21 = icmp ult i64 %2, 16
  br i1 %21, label %22, label %23

22:                                               ; preds = %20
  tail call void @ERR_new() #10
  tail call void @ERR_set_debug(ptr noundef nonnull @.str.3, i32 noundef 102, ptr noundef nonnull @__func__.hdr_generate_mask) #10
  tail call void (i32, i32, ptr, ...) @ERR_set_error(i32 noundef 20, i32 noundef 524550, ptr noundef null) #10
  br label %.loopexit

23:                                               ; preds = %20
  %24 = getelementptr inbounds nuw i8, ptr %0, i64 16
  %25 = load ptr, ptr %24, align 8, !tbaa !3
  %26 = tail call i32 @EVP_CipherInit_ex(ptr noundef %25, ptr noundef null, ptr noundef null, ptr noundef null, ptr noundef %1, i32 noundef 1) #10
  %.not = icmp eq i32 %26, 0
  br i1 %.not, label %30, label %27

27:                                               ; preds = %23
  %28 = load ptr, ptr %24, align 8, !tbaa !3
  %29 = call i32 @EVP_CipherUpdate(ptr noundef %28, ptr noundef nonnull %3, ptr noundef nonnull %5, ptr noundef nonnull @hdr_generate_mask.zeroes, i32 noundef 5) #10
  %.not19 = icmp eq i32 %29, 0
  br i1 %.not19, label %30, label %.loopexit

30:                                               ; preds = %27, %23
  call void @ERR_new() #10
  call void @ERR_set_debug(ptr noundef nonnull @.str.3, i32 noundef 109, ptr noundef nonnull @__func__.hdr_generate_mask) #10
  call void (i32, i32, ptr, ...) @ERR_set_error(i32 noundef 20, i32 noundef 524294, ptr noundef null) #10
  br label %.loopexit

31:                                               ; preds = %4
  tail call void @ERR_new() #10
  tail call void @ERR_set_debug(ptr noundef nonnull @.str.3, i32 noundef 113, ptr noundef nonnull @__func__.hdr_generate_mask) #10
  tail call void (i32, i32, ptr, ...) @ERR_set_error(i32 noundef 20, i32 noundef 786691, ptr noundef null) #10
  br label %.loopexit

.loopexit:                                        ; preds = %.preheader.preheader, %27, %31, %30, %22, %19, %11
  %.017 = phi i32 [ 0, %11 ], [ 0, %19 ], [ 0, %22 ], [ 0, %30 ], [ 0, %31 ], [ 1, %27 ], [ 1, %.preheader.preheader ]
  call void @llvm.lifetime.end.p0(i64 16, ptr nonnull %6) #10
  call void @llvm.lifetime.end.p0(i64 4, ptr nonnull %5) #10
  ret i32 %.017
}